; Function Attrs: nounwind uwtable
define ptr @l_Lean_Compiler_LCNF_Code_mapFVarM___rarg___lambda__12(ptr noundef %0, ptr noundef %1, ptr noundef %2, ptr noundef %3, ptr noundef %4, ptr noundef %5, ptr noundef %6) #0 {
  %8 = getelementptr inbounds nuw i8, ptr %0, i64 24
  %9 = load ptr, ptr %8, align 8, !tbaa !4
  %10 = ptrtoint ptr %9 to i64
  %11 = and i64 %10, 1
  %.not = icmp eq i64 %11, 0
  br i1 %.not, label %12, label %lean_inc.exit25

12:                                               ; preds = %7
  %.val.i = load i32, ptr %9, align 4, !tbaa !8
  %13 = icmp sgt i32 %.val.i, 0
  br i1 %13, label %14, label %16, !prof !13

14:                                               ; preds = %12
  %15 = add nuw i32 %.val.i, 1
  store i32 %15, ptr %9, align 4, !tbaa !8
  br label %lean_inc.exit25

16:                                               ; preds = %12
  %.not.i = icmp eq i32 %.val.i, 0
  br i1 %.not.i, label %lean_inc.exit25, label %17

17:                                               ; preds = %16
  tail call void @lean_inc_ref_cold(ptr noundef nonnull %9) #4
  br label %lean_inc.exit25

lean_inc.exit25:                                  ; preds = %17, %16, %14, %7
  %18 = ptrtoint ptr %1 to i64
  %19 = and i64 %18, 1
  %.not32 = icmp eq i64 %19, 0
  br i1 %.not32, label %20, label %lean_inc.exit24

20:                                               ; preds = %lean_inc.exit25
  %.val.i26 = load i32, ptr %1, align 4, !tbaa !8
  %21 = icmp sgt i32 %.val.i26, 0
  br i1 %21, label %22, label %24, !prof !13

22:                                               ; preds = %20
  %23 = add nuw i32 %.val.i26, 1
  store i32 %23, ptr %1, align 4, !tbaa !8
  br label %lean_inc.exit24

24:                                               ; preds = %20
  %.not.i27 = icmp eq i32 %.val.i26, 0
  br i1 %.not.i27, label %lean_inc.exit24, label %25

25:                                               ; preds = %24
  tail call void @lean_inc_ref_cold(ptr noundef nonnull %1) #4
  br label %lean_inc.exit24

lean_inc.exit24:                                  ; preds = %25, %24, %22, %lean_inc.exit25
  %26 = tail call ptr @lean_apply_1(ptr noundef %1, ptr noundef %9) #4
  %27 = ptrtoint ptr %5 to i64
  %28 = and i64 %27, 1
  %.not33 = icmp eq i64 %28, 0
  br i1 %.not33, label %29, label %lean_inc.exit

29:                                               ; preds = %lean_inc.exit24
  %.val.i29 = load i32, ptr %5, align 4, !tbaa !8
  %30 = icmp sgt i32 %.val.i29, 0
  br i1 %30, label %31, label %33, !prof !13

31:                                               ; preds = %29
  %32 = add nuw i32 %.val.i29, 1
  store i32 %32, ptr %5, align 4, !tbaa !8
  br label %lean_inc.exit

33:                                               ; preds = %29
  %.not.i30 = icmp eq i32 %.val.i29, 0
  br i1 %.not.i30, label %lean_inc.exit, label %34

34:                                               ; preds = %33
  tail call void @lean_inc_ref_cold(ptr noundef nonnull %5) #4
  br label %lean_inc.exit

lean_inc.exit:                                    ; preds = %34, %33, %31, %lean_inc.exit24
  tail call void @lean_inc_heartbeat() #4
  %35 = tail call noalias ptr @mi_malloc_small(i64 noundef 80) #4
  %36 = icmp eq ptr %35, null
  br i1 %36, label %37, label %lean_alloc_closure.exit

37:                                               ; preds = %lean_inc.exit
  tail call void @lean_internal_panic_out_of_memory() #5
  unreachable

lean_alloc_closure.exit:                          ; preds = %lean_inc.exit
  %38 = getelementptr inbounds nuw i8, ptr %35, i64 4
  store i32 1, ptr %35, align 4, !tbaa !8
  store i32 -184549296, ptr %38, align 4
  %39 = getelementptr inbounds nuw i8, ptr %35, i64 8
  store ptr @l_Lean_Compiler_LCNF_Code_mapFVarM___rarg___lambda__11, ptr %39, align 8, !tbaa !4
  %40 = getelementptr inbounds nuw i8, ptr %35, i64 16
  store i16 8, ptr %40, align 8, !tbaa !11
  %41 = getelementptr inbounds nuw i8, ptr %35, i64 18
  store i16 7, ptr %41, align 2, !tbaa !11
  %42 = getelementptr inbounds nuw i8, ptr %35, i64 24
  store ptr %0, ptr %42, align 8, !tbaa !4
  %43 = getelementptr inbounds nuw i8, ptr %35, i64 32
  store ptr %2, ptr %43, align 8, !tbaa !4
  %44 = getelementptr inbounds nuw i8, ptr %35, i64 40
  store ptr %3, ptr %44, align 8, !tbaa !4
  %45 = getelementptr inbounds nuw i8, ptr %35, i64 48
  store ptr %1, ptr %45, align 8, !tbaa !4
  %46 = getelementptr inbounds nuw i8, ptr %35, i64 56
  store ptr %4, ptr %46, align 8, !tbaa !4
  %47 = getelementptr inbounds nuw i8, ptr %35, i64 64
  store ptr %6, ptr %47, align 8, !tbaa !4
  %48 = getelementptr inbounds nuw i8, ptr %35, i64 72
  store ptr %5, ptr %48, align 8, !tbaa !4
  %49 = tail call ptr @lean_apply_4(ptr noundef %5, ptr noundef nonnull inttoptr (i64 1 to ptr), ptr noundef nonnull inttoptr (i64 1 to ptr), ptr noundef %26, ptr noundef nonnull %35) #4
  ret ptr %49
}